target datalayout = "e-m:e-p270:32:32-p271:32:32-p272:64:64-i64:64-i128:128-f80:128-n8:16:32:64-S128"
target triple = "x86_64-pc-linux-gnu"

%"class.icu_77::Package" = type <{ [64 x i8], [64 x i8], ptr, [1024 x i8], i32, i32, i8, i8, i8, i8, i32, i32, [4 x i8], ptr, i32, i32, [100000 x i8], [100000 x i8], i32, [4 x i8], ptr, ptr, i32, i32, i32, i8, [3 x i8] }>
%"struct.icu_77::Item" = type { ptr, ptr, i32, i8, i8 }

; Function Attrs: mustprogress uwtable
define void @_ZN6icu_777Package8addItemsERKS0_(ptr noundef nonnull align 8 dereferenceable(201237) %0, ptr noundef nonnull align 8 dereferenceable(201237) %1) #0 align 2 {
  %3 = alloca ptr, align 8
  %4 = alloca ptr, align 8
  %5 = alloca ptr, align 8
  %6 = alloca i32, align 4
  store ptr %0, ptr %3, align 8, !tbaa !26
  store ptr %1, ptr %4, align 8, !tbaa !26
  %7 = load ptr, ptr %3, align 8
  call void @llvm.lifetime.start.p0(i64 8, ptr %5) #13
  call void @llvm.lifetime.start.p0(i64 4, ptr %6) #13
  %8 = load ptr, ptr %4, align 8, !tbaa !26
  %9 = getelementptr inbounds nuw %"class.icu_77::Package", ptr %8, i32 0, i32 13
  %10 = load ptr, ptr %9, align 8, !tbaa !39
  store ptr %10, ptr %5, align 8, !tbaa !74
  store i32 0, ptr %6, align 4, !tbaa !8
  br label %11

11:                                               ; preds = %30, %2
  %12 = load i32, ptr %6, align 4, !tbaa !8
  %13 = load ptr, ptr %4, align 8, !tbaa !26
  %14 = getelementptr inbounds nuw %"class.icu_77::Package", ptr %13, i32 0, i32 10
  %15 = load i32, ptr %14, align 4, !tbaa !37
  %16 = icmp slt i32 %12, %15
  br i1 %16, label %17, label %35

17:                                               ; preds = %11
  %18 = load ptr, ptr %5, align 8, !tbaa !74
  %19 = getelementptr inbounds nuw %"struct.icu_77::Item", ptr %18, i32 0, i32 0
  %20 = load ptr, ptr %19, align 8, !tbaa !68
  %21 = load ptr, ptr %5, align 8, !tbaa !74
  %22 = getelementptr inbounds nuw %"struct.icu_77::Item", ptr %21, i32 0, i32 1
  %23 = load ptr, ptr %22, align 8, !tbaa !51
  %24 = load ptr, ptr %5, align 8, !tbaa !74
  %25 = getelementptr inbounds nuw %"struct.icu_77::Item", ptr %24, i32 0, i32 2
  %26 = load i32, ptr %25, align 8, !tbaa !69
  %27 = load ptr, ptr %5, align 8, !tbaa !74
  %28 = getelementptr inbounds nuw %"struct.icu_77::Item", ptr %27, i32 0, i32 4
  %29 = load i8, ptr %28, align 1, !tbaa !70
  call void @_ZN6icu_777Package7addItemEPKcPhiac(ptr noundef nonnull align 8 dereferenceable(201237) %7, ptr noundef %20, ptr noundef %23, i32 noundef %26, i8 noundef signext 0, i8 noundef signext %29)
  br label %30

30:                                               ; preds = %17
  %31 = load ptr, ptr %5, align 8, !tbaa !74
  %32 = getelementptr inbounds nuw %"struct.icu_77::Item", ptr %31, i32 1
  store ptr %32, ptr %5, align 8, !tbaa !74
  %33 = load i32, ptr %6, align 4, !tbaa !8
  %34 = add nsw i32 %33, 1
  store i32 %34, ptr %6, align 4, !tbaa !8
  br label %11, !llvm.loop !85

35:                                               ; preds = %11
  call void @llvm.lifetime.end.p0(i64 4, ptr %6) #13
  call void @llvm.lifetime.end.p0(i64 8, ptr %5) #13
  ret void
}