; Function Attrs: mustprogress uwtable
define void @_ZN6icu_777Package8addItemsERKS0_(ptr noundef nonnull align 8 dereferenceable(201237) %0, ptr noundef nonnull readonly align 8 captures(none) dereferenceable(201237) %1) local_unnamed_addr #13 align 2 {
  %3 = getelementptr inbounds nuw i8, ptr %1, i64 1172
  %4 = load i32, ptr %3, align 4, !tbaa !29
  %5 = icmp sgt i32 %4, 0
  br i1 %5, label %.lr.ph.preheader, label %._crit_edge

.lr.ph.preheader:                                 ; preds = %2
  %6 = getelementptr inbounds nuw i8, ptr %1, i64 1184
  %7 = load ptr, ptr %6, align 8, !tbaa !30
  br label %.lr.ph

.lr.ph:                                           ; preds = %.lr.ph.preheader, %.lr.ph
  %.011 = phi i32 [ %16, %.lr.ph ], [ 0, %.lr.ph.preheader ]
  %.0910 = phi ptr [ %15, %.lr.ph ], [ %7, %.lr.ph.preheader ]
  %8 = load ptr, ptr %.0910, align 8, !tbaa !54
  %9 = getelementptr inbounds nuw i8, ptr %.0910, i64 8
  %10 = load ptr, ptr %9, align 8, !tbaa !33
  %11 = getelementptr inbounds nuw i8, ptr %.0910, i64 16
  %12 = load i32, ptr %11, align 8, !tbaa !55
  %13 = getelementptr inbounds nuw i8, ptr %.0910, i64 21
  %14 = load i8, ptr %13, align 1, !tbaa !56
  tail call void @_ZN6icu_777Package7addItemEPKcPhiac(ptr noundef nonnull align 8 dereferenceable(201237) %0, ptr noundef %8, ptr noundef %10, i32 noundef %12, i8 noundef signext 0, i8 noundef signext %14)
  %15 = getelementptr inbounds nuw i8, ptr %.0910, i64 24
  %16 = add nuw nsw i32 %.011, 1
  %17 = load i32, ptr %3, align 4, !tbaa !29
  %18 = icmp slt i32 %16, %17
  br i1 %18, label %.lr.ph, label %._crit_edge, !llvm.loop !74

._crit_edge:                                      ; preds = %.lr.ph, %2
  ret void
}